target datalayout = "e-m:e-p270:32:32-p271:32:32-p272:64:64-i64:64-i128:128-f80:128-n8:16:32:64-S128"
target triple = "x86_64-pc-linux-gnu"

%class.QByteArray = type { %struct.QArrayDataPointer.1 }
%struct.QArrayDataPointer.1 = type { ptr, ptr, i64 }
%class.QBasicAtomicInteger = type { %"struct.std::atomic" }
%"struct.std::atomic" = type { %"struct.std::__atomic_base" }
%"struct.std::__atomic_base" = type { i32 }
%class.QFlags.36 = type { i32 }
%struct.QArrayData = type { %class.QBasicAtomicInteger, %class.QFlags.36, i64 }

@.str.97 = private unnamed_addr constant [88 x i8] c"generated/usr/lib/gcc/x86_64-linux-gnu/12/../../../../include/c++/12/bits/atomic_base.h\00", align 1
@__PRETTY_FUNCTION__._ZNKSt13__atomic_baseIiE4loadESt12memory_order = private unnamed_addr constant [74 x i8] c"__int_type std::__atomic_base<int>::load(memory_order) const [_ITp = int]\00", align 1
@.str.98 = private unnamed_addr constant [28 x i8] c"__b != memory_order_release\00", align 1
@.str.99 = private unnamed_addr constant [28 x i8] c"__b != memory_order_acq_rel\00", align 1

; Function Attrs: noinline noreturn nounwind null_pointer_is_valid sspstrong uwtable
define linkonce_odr hidden void @__clang_call_terminate(ptr noundef %0) #16 comdat {
  %2 = call ptr @__cxa_begin_catch(ptr %0) #13
  call void @_ZSt9terminatev() #29
  unreachable
}

; Function Attrs: mustprogress nounwind null_pointer_is_valid sspstrong uwtable
define linkonce_odr noundef i32 @_ZStanSt12memory_orderSt23__memory_order_modifier(i32 noundef %0, i32 noundef %1) #7 comdat {
  %3 = alloca i32, align 4
  %4 = alloca i32, align 4
  store i32 %0, ptr %3, align 4
  store i32 %1, ptr %4, align 4
  %5 = load i32, ptr %3, align 4
  %6 = load i32, ptr %4, align 4
  %7 = and i32 %5, %6
  ret i32 %7
}

; Function Attrs: alwaysinline mustprogress nounwind null_pointer_is_valid sspstrong uwtable
define linkonce_odr noundef i32 @_ZNKSt13__atomic_baseIiE4loadESt12memory_order(ptr noundef align 4 dereferenceable_or_null(4) %0, i32 noundef %1) #6 comdat align 2 personality ptr @__gxx_personality_v0 {
  %3 = alloca ptr, align 8
  %4 = alloca i32, align 4
  %5 = alloca i32, align 4
  %6 = alloca i32, align 4
  store ptr %0, ptr %3, align 8
  store i32 %1, ptr %4, align 4
  %7 = load ptr, ptr %3, align 8
  call void @llvm.lifetime.start.p0(i64 4, ptr %5) #13
  %8 = load i32, ptr %4, align 4
  %9 = invoke noundef i32 @_ZStanSt12memory_orderSt23__memory_order_modifier(i32 noundef %8, i32 noundef 65535)
          to label %10 unwind label %43

10:                                               ; preds = %2
  store i32 %9, ptr %5, align 4
  br label %11

11:                                               ; preds = %10
  %12 = load i32, ptr %5, align 4
  %13 = icmp ne i32 %12, 3
  %14 = xor i1 %13, true
  %15 = zext i1 %14 to i64
  %16 = call i64 @llvm.expect.i64(i64 %15, i64 0)
  %17 = icmp ne i64 %16, 0
  br i1 %17, label %18, label %19

18:                                               ; preds = %11
  call void @_ZSt21__glibcxx_assert_failPKciS0_S0_(ptr noundef @.str.97, i32 noundef 485, ptr noundef @__PRETTY_FUNCTION__._ZNKSt13__atomic_baseIiE4loadESt12memory_order, ptr noundef @.str.98) #29
  unreachable

19:                                               ; preds = %11
  br label %20

20:                                               ; preds = %19
  br label %21

21:                                               ; preds = %20
  br label %22

22:                                               ; preds = %21
  %23 = load i32, ptr %5, align 4
  %24 = icmp ne i32 %23, 4
  %25 = xor i1 %24, true
  %26 = zext i1 %25 to i64
  %27 = call i64 @llvm.expect.i64(i64 %26, i64 0)
  %28 = icmp ne i64 %27, 0
  br i1 %28, label %29, label %30

29:                                               ; preds = %22
  call void @_ZSt21__glibcxx_assert_failPKciS0_S0_(ptr noundef @.str.97, i32 noundef 486, ptr noundef @__PRETTY_FUNCTION__._ZNKSt13__atomic_baseIiE4loadESt12memory_order, ptr noundef @.str.99) #29
  unreachable

30:                                               ; preds = %22
  br label %31

31:                                               ; preds = %30
  br label %32

32:                                               ; preds = %31
  %33 = getelementptr inbounds nuw %"struct.std::__atomic_base", ptr %7, i32 0, i32 0
  %34 = load i32, ptr %4, align 4
  switch i32 %34, label %35 [
    i32 1, label %37
    i32 2, label %37
    i32 5, label %39
  ]

35:                                               ; preds = %32
  %36 = load atomic i32, ptr %33 monotonic, align 4
  store i32 %36, ptr %6, align 4
  br label %41

37:                                               ; preds = %32, %32
  %38 = load atomic i32, ptr %33 acquire, align 4
  store i32 %38, ptr %6, align 4
  br label %41

39:                                               ; preds = %32
  %40 = load atomic i32, ptr %33 seq_cst, align 4
  store i32 %40, ptr %6, align 4
  br label %41

41:                                               ; preds = %39, %37, %35
  %42 = load i32, ptr %6, align 4
  call void @llvm.lifetime.end.p0(i64 4, ptr %5) #13
  ret i32 %42

43:                                               ; preds = %2
  %44 = landingpad { ptr, i32 }
          catch ptr null
  %45 = extractvalue { ptr, i32 } %44, 0
  call void @__clang_call_terminate(ptr %45) #29
  unreachable
}

; Function Attrs: inlinehint mustprogress nounwind null_pointer_is_valid sspstrong uwtable
define linkonce_odr noundef i32 @_ZN10QAtomicOpsIiE11loadRelaxedIiEET_RKSt6atomicIS2_E(ptr noundef align 4 dereferenceable(4) %0) #3 comdat align 2 {
  %2 = alloca ptr, align 8
  store ptr %0, ptr %2, align 8
  %3 = load ptr, ptr %2, align 8
  %4 = call noundef i32 @_ZNKSt13__atomic_baseIiE4loadESt12memory_order(ptr noundef align 4 dereferenceable_or_null(4) %3, i32 noundef 0) #13
  ret i32 %4
}

; Function Attrs: mustprogress nounwind null_pointer_is_valid sspstrong uwtable
define linkonce_odr noundef i32 @_ZNK19QBasicAtomicIntegerIiE11loadRelaxedEv(ptr noundef align 4 dereferenceable_or_null(4) %0) #7 comdat align 2 {
  %2 = alloca ptr, align 8
  store ptr %0, ptr %2, align 8
  %3 = load ptr, ptr %2, align 8
  %4 = getelementptr inbounds nuw %class.QBasicAtomicInteger, ptr %3, i32 0, i32 0
  %5 = call noundef i32 @_ZN10QAtomicOpsIiE11loadRelaxedIiEET_RKSt6atomicIS2_E(ptr noundef align 4 dereferenceable(4) %4) #13
  ret i32 %5
}

; Function Attrs: mustprogress nounwind null_pointer_is_valid sspstrong uwtable
define linkonce_odr noundef zeroext i1 @_ZNK10QArrayData11needsDetachEv(ptr noundef align 8 dereferenceable_or_null(16) %0) #7 comdat align 2 {
  %2 = alloca ptr, align 8
  store ptr %0, ptr %2, align 8
  %3 = load ptr, ptr %2, align 8
  %4 = getelementptr inbounds nuw %struct.QArrayData, ptr %3, i32 0, i32 0
  %5 = call noundef i32 @_ZNK19QBasicAtomicIntegerIiE11loadRelaxedEv(ptr noundef align 4 dereferenceable_or_null(4) %4) #13
  %6 = icmp sgt i32 %5, 1
  ret i1 %6
}

; Function Attrs: mustprogress nounwind null_pointer_is_valid sspstrong uwtable
define linkonce_odr noundef zeroext i1 @_ZNK17QArrayDataPointerIcE11needsDetachEv(ptr noundef align 8 dereferenceable_or_null(24) %0) #7 comdat align 2 {
  %2 = alloca ptr, align 8
  store ptr %0, ptr %2, align 8
  %3 = load ptr, ptr %2, align 8
  %4 = getelementptr inbounds nuw %struct.QArrayDataPointer.1, ptr %3, i32 0, i32 0
  %5 = load ptr, ptr %4, align 8
  %6 = icmp ne ptr %5, null
  br i1 %6, label %7, label %11

7:                                                ; preds = %1
  %8 = getelementptr inbounds nuw %struct.QArrayDataPointer.1, ptr %3, i32 0, i32 0
  %9 = load ptr, ptr %8, align 8
  %10 = call noundef zeroext i1 @_ZNK10QArrayData11needsDetachEv(ptr noundef align 8 dereferenceable_or_null(16) %9) #13
  br label %11

11:                                               ; preds = %7, %1
  %12 = phi i1 [ true, %1 ], [ %10, %7 ]
  ret i1 %12
}

; Function Attrs: mustprogress nounwind null_pointer_is_valid sspstrong uwtable
define linkonce_odr noundef ptr @_ZN17QArrayDataPointerIcEptEv(ptr noundef align 8 dereferenceable_or_null(24) %0) #7 comdat align 2 {
  %2 = alloca ptr, align 8
  store ptr %0, ptr %2, align 8
  %3 = load ptr, ptr %2, align 8
  ret ptr %3
}

; Function Attrs: mustprogress nounwind null_pointer_is_valid sspstrong uwtable
define linkonce_odr noundef ptr @_ZN17QArrayDataPointerIcE4dataEv(ptr noundef align 8 dereferenceable_or_null(24) %0) #7 comdat align 2 {
  %2 = alloca ptr, align 8
  store ptr %0, ptr %2, align 8
  %3 = load ptr, ptr %2, align 8
  %4 = getelementptr inbounds nuw %struct.QArrayDataPointer.1, ptr %3, i32 0, i32 1
  %5 = load ptr, ptr %4, align 8
  ret ptr %5
}

; Function Attrs: inlinehint mustprogress null_pointer_is_valid sspstrong uwtable
define linkonce_odr void @_ZN10QByteArray6detachEv(ptr noundef align 8 dereferenceable_or_null(24) %0) #8 comdat align 2 {
  %2 = alloca ptr, align 8
  store ptr %0, ptr %2, align 8
  %3 = load ptr, ptr %2, align 8
  %4 = getelementptr inbounds nuw %class.QByteArray, ptr %3, i32 0, i32 0
  %5 = call noundef ptr @_ZN17QArrayDataPointerIcEptEv(ptr noundef align 8 dereferenceable_or_null(24) %4) #13
  %6 = call noundef zeroext i1 @_ZNK17QArrayDataPointerIcE11needsDetachEv(ptr noundef align 8 dereferenceable_or_null(24) %5) #13
  br i1 %6, label %7, label %9

7:                                                ; preds = %1
  %8 = call noundef i64 @_ZNK10QByteArray4sizeEv(ptr noundef align 8 dereferenceable_or_null(24) %3)
  call void @_ZN10QByteArray11reallocDataExN10QArrayData16AllocationOptionE(ptr noundef align 8 dereferenceable_or_null(24) %3, i64 noundef %8, i32 noundef 1)
  br label %9

9:                                                ; preds = %7, %1
  ret void
}

; Function Attrs: mustprogress nounwind null_pointer_is_valid sspstrong uwtable
define linkonce_odr noundef ptr @_ZNK17QArrayDataPointerIcEptEv(ptr noundef align 8 dereferenceable_or_null(24) %0) #7 comdat align 2 {
  %2 = alloca ptr, align 8
  store ptr %0, ptr %2, align 8
  %3 = load ptr, ptr %2, align 8
  ret ptr %3
}

; Function Attrs: inlinehint mustprogress null_pointer_is_valid sspstrong uwtable
define linkonce_odr noundef ptr @_ZN10QByteArray4dataEv(ptr noundef align 8 dereferenceable_or_null(24) %0) #8 comdat align 2 {
  %2 = alloca ptr, align 8
  store ptr %0, ptr %2, align 8
  %3 = load ptr, ptr %2, align 8
  call void @_ZN10QByteArray6detachEv(ptr noundef align 8 dereferenceable_or_null(24) %3)
  %4 = getelementptr inbounds nuw %class.QByteArray, ptr %3, i32 0, i32 0
  %5 = call noundef ptr @_ZN17QArrayDataPointerIcE4dataEv(ptr noundef align 8 dereferenceable_or_null(24) %4) #13
  ret ptr %5
}

; Function Attrs: inlinehint mustprogress nounwind null_pointer_is_valid sspstrong uwtable
define linkonce_odr noundef i64 @_ZNK10QByteArray4sizeEv(ptr noundef align 8 dereferenceable_or_null(24) %0) #3 comdat align 2 {
  %2 = alloca ptr, align 8
  store ptr %0, ptr %2, align 8
  %3 = load ptr, ptr %2, align 8
  %4 = getelementptr inbounds nuw %class.QByteArray, ptr %3, i32 0, i32 0
  %5 = call noundef ptr @_ZNK17QArrayDataPointerIcEptEv(ptr noundef align 8 dereferenceable_or_null(24) %4) #13
  %6 = getelementptr inbounds nuw %struct.QArrayDataPointer.1, ptr %5, i32 0, i32 2
  %7 = load i64, ptr %6, align 8
  ret i64 %7
}

; Function Attrs: inlinehint mustprogress null_pointer_is_valid sspstrong uwtable
define linkonce_odr noundef align 1 dereferenceable(1) ptr @_ZN10QByteArrayixEx(ptr noundef align 8 dereferenceable_or_null(24) %0, i64 noundef %1) #8 comdat align 2 {
  %3 = alloca ptr, align 8
  %4 = alloca i64, align 8
  store ptr %0, ptr %3, align 8
  store i64 %1, ptr %4, align 8
  %5 = load ptr, ptr %3, align 8
  %6 = call noundef ptr @_ZN10QByteArray4dataEv(ptr noundef align 8 dereferenceable_or_null(24) %5)
  %7 = load i64, ptr %4, align 8
  %8 = getelementptr i8, ptr %6, i64 %7
  ret ptr %8
}

; Function Attrs: inlinehint mustprogress nounwind null_pointer_is_valid sspstrong uwtable
define linkonce_odr noundef i64 @_ZNK10QByteArray6lengthEv(ptr noundef align 8 dereferenceable_or_null(24) %0) #3 comdat align 2 {
  %2 = alloca ptr, align 8
  store ptr %0, ptr %2, align 8
  %3 = load ptr, ptr %2, align 8
  %4 = call noundef i64 @_ZNK10QByteArray4sizeEv(ptr noundef align 8 dereferenceable_or_null(24) %3)
  ret i64 %4
}

; Function Attrs: mustprogress null_pointer_is_valid sspstrong uwtable
define void @_ZN21ShowPacketBytesDialog5rot13ER10QByteArray(ptr noundef align 8 dereferenceable_or_null(296) %0, ptr noundef align 8 dereferenceable(24) %1) #0 align 2 {
  %3 = alloca ptr, align 8
  %4 = alloca ptr, align 8
  %5 = alloca i32, align 4
  %6 = alloca i8, align 1
  store ptr %0, ptr %3, align 8
  store ptr %1, ptr %4, align 8
  call void @llvm.lifetime.start.p0(i64 4, ptr %5) #13
  store i32 0, ptr %5, align 4
  br label %7

7:                                                ; preds = %64, %2
  %8 = load i32, ptr %5, align 4
  %9 = sext i32 %8 to i64
  %10 = load ptr, ptr %4, align 8
  %11 = call noundef i64 @_ZNK10QByteArray6lengthEv(ptr noundef align 8 dereferenceable_or_null(24) %10)
  %12 = icmp slt i64 %9, %11
  br i1 %12, label %14, label %13

13:                                               ; preds = %7
  call void @llvm.lifetime.end.p0(i64 4, ptr %5) #13
  br label %67

14:                                               ; preds = %7
  call void @llvm.lifetime.start.p0(i64 1, ptr %6) #13
  %15 = load ptr, ptr %4, align 8
  %16 = load i32, ptr %5, align 4
  %17 = sext i32 %16 to i64
  %18 = call noundef align 1 dereferenceable(1) ptr @_ZN10QByteArrayixEx(ptr noundef align 8 dereferenceable_or_null(24) %15, i64 noundef %17)
  %19 = load i8, ptr %18, align 1
  %20 = call signext i8 @g_ascii_toupper(i8 noundef signext %19) #30
  store i8 %20, ptr %6, align 1
  %21 = load i8, ptr %6, align 1
  %22 = sext i8 %21 to i32
  %23 = icmp sge i32 %22, 65
  br i1 %23, label %24, label %41

24:                                               ; preds = %14
  %25 = load i8, ptr %6, align 1
  %26 = sext i8 %25 to i32
  %27 = icmp sle i32 %26, 77
  br i1 %27, label %28, label %41

28:                                               ; preds = %24
  %29 = load ptr, ptr %4, align 8
  %30 = load i32, ptr %5, align 4
  %31 = sext i32 %30 to i64
  %32 = call noundef align 1 dereferenceable(1) ptr @_ZN10QByteArrayixEx(ptr noundef align 8 dereferenceable_or_null(24) %29, i64 noundef %31)
  %33 = load i8, ptr %32, align 1
  %34 = sext i8 %33 to i32
  %35 = add i32 %34, 13
  %36 = trunc i32 %35 to i8
  %37 = load ptr, ptr %4, align 8
  %38 = load i32, ptr %5, align 4
  %39 = sext i32 %38 to i64
  %40 = call noundef align 1 dereferenceable(1) ptr @_ZN10QByteArrayixEx(ptr noundef align 8 dereferenceable_or_null(24) %37, i64 noundef %39)
  store i8 %36, ptr %40, align 1
  br label %63

41:                                               ; preds = %24, %14
  %42 = load i8, ptr %6, align 1
  %43 = sext i8 %42 to i32
  %44 = icmp sge i32 %43, 78
  br i1 %44, label %45, label %62

45:                                               ; preds = %41
  %46 = load i8, ptr %6, align 1
  %47 = sext i8 %46 to i32
  %48 = icmp sle i32 %47, 90
  br i1 %48, label %49, label %62

49:                                               ; preds = %45
  %50 = load ptr, ptr %4, align 8
  %51 = load i32, ptr %5, align 4
  %52 = sext i32 %51 to i64
  %53 = call noundef align 1 dereferenceable(1) ptr @_ZN10QByteArrayixEx(ptr noundef align 8 dereferenceable_or_null(24) %50, i64 noundef %52)
  %54 = load i8, ptr %53, align 1
  %55 = sext i8 %54 to i32
  %56 = sub i32 %55, 13
  %57 = trunc i32 %56 to i8
  %58 = load ptr, ptr %4, align 8
  %59 = load i32, ptr %5, align 4
  %60 = sext i32 %59 to i64
  %61 = call noundef align 1 dereferenceable(1) ptr @_ZN10QByteArrayixEx(ptr noundef align 8 dereferenceable_or_null(24) %58, i64 noundef %60)
  store i8 %57, ptr %61, align 1
  br label %62

62:                                               ; preds = %49, %45, %41
  br label %63

63:                                               ; preds = %62, %28
  call void @llvm.lifetime.end.p0(i64 1, ptr %6) #13
  br label %64

64:                                               ; preds = %63
  %65 = load i32, ptr %5, align 4
  %66 = add i32 %65, 1
  store i32 %66, ptr %5, align 4
  br label %7, !llvm.loop !23

67:                                               ; preds = %13
  ret void
}