; Function Attrs: mustprogress null_pointer_is_valid sspstrong uwtable
define void @_ZN21ShowPacketBytesDialog5rot13ER10QByteArray(ptr readnone align 8 captures(none) %0, ptr noundef align 8 dereferenceable(24) %1) local_unnamed_addr #0 align 2 personality ptr @__gxx_personality_v0 {
  %3 = getelementptr inbounds nuw i8, ptr %1, i64 16
  %4 = load i64, ptr %3, align 8
  %5 = icmp sgt i64 %4, 0
  br i1 %5, label %.lr.ph, label %._crit_edge

.lr.ph:                                           ; preds = %2
  %6 = getelementptr inbounds nuw i8, ptr %1, i64 8
  br label %7

._crit_edge:                                      ; preds = %46, %2
  ret void

7:                                                ; preds = %.lr.ph, %46
  %8 = phi i64 [ %4, %.lr.ph ], [ %49, %46 ]
  %9 = phi i64 [ 0, %.lr.ph ], [ %48, %46 ]
  %.038 = phi i32 [ 0, %.lr.ph ], [ %47, %46 ]
  %10 = load ptr, ptr %1, align 8
  %.not.i.i.i.i = icmp eq ptr %10, null
  br i1 %.not.i.i.i.i, label %_ZNK17QArrayDataPointerIcE11needsDetachEv.exit.thread.i.i.i, label %_ZNK17QArrayDataPointerIcE11needsDetachEv.exit.i.i.i

_ZNK17QArrayDataPointerIcE11needsDetachEv.exit.i.i.i: ; preds = %7
  %11 = load atomic i32, ptr %10 monotonic, align 4
  %12 = icmp sgt i32 %11, 1
  br i1 %12, label %_ZNK17QArrayDataPointerIcE11needsDetachEv.exit.thread.i.i.i, label %_ZN10QByteArrayixEx.exit

_ZNK17QArrayDataPointerIcE11needsDetachEv.exit.thread.i.i.i: ; preds = %_ZNK17QArrayDataPointerIcE11needsDetachEv.exit.i.i.i, %7
  tail call void @_ZN10QByteArray11reallocDataExN10QArrayData16AllocationOptionE(ptr noundef align 8 dereferenceable_or_null(24) %1, i64 noundef %8, i32 noundef 1)
  br label %_ZN10QByteArrayixEx.exit

_ZN10QByteArrayixEx.exit:                         ; preds = %_ZNK17QArrayDataPointerIcE11needsDetachEv.exit.i.i.i, %_ZNK17QArrayDataPointerIcE11needsDetachEv.exit.thread.i.i.i
  %13 = load ptr, ptr %6, align 8
  %14 = getelementptr i8, ptr %13, i64 %9
  %15 = load i8, ptr %14, align 1
  %16 = tail call signext i8 @g_ascii_toupper(i8 noundef signext %15) #32
  %17 = add i8 %16, -65
  %or.cond = icmp ult i8 %17, 13
  br i1 %or.cond, label %18, label %30

18:                                               ; preds = %_ZN10QByteArrayixEx.exit
  %19 = load ptr, ptr %1, align 8
  %.not.i.i.i.i22 = icmp eq ptr %19, null
  br i1 %.not.i.i.i.i22, label %_ZN10QByteArrayixEx.exit25, label %_ZNK17QArrayDataPointerIcE11needsDetachEv.exit.i.i.i23

_ZNK17QArrayDataPointerIcE11needsDetachEv.exit.i.i.i23: ; preds = %18
  %20 = load atomic i32, ptr %19 monotonic, align 4
  %21 = icmp sgt i32 %20, 1
  br i1 %21, label %_ZN10QByteArrayixEx.exit25, label %_ZN10QByteArrayixEx.exit25.thread

_ZN10QByteArrayixEx.exit25.thread:                ; preds = %_ZNK17QArrayDataPointerIcE11needsDetachEv.exit.i.i.i23
  %22 = add i8 %15, 13
  br label %_ZNK17QArrayDataPointerIcE11needsDetachEv.exit.i.i.i27

_ZN10QByteArrayixEx.exit25:                       ; preds = %18, %_ZNK17QArrayDataPointerIcE11needsDetachEv.exit.i.i.i23
  %23 = load i64, ptr %3, align 8
  tail call void @_ZN10QByteArray11reallocDataExN10QArrayData16AllocationOptionE(ptr noundef align 8 dereferenceable_or_null(24) %1, i64 noundef %23, i32 noundef 1)
  %.pre42 = load ptr, ptr %6, align 8
  %.phi.trans.insert43 = getelementptr i8, ptr %.pre42, i64 %9
  %.pre44 = load i8, ptr %.phi.trans.insert43, align 1
  %.pre45 = load ptr, ptr %1, align 8
  %24 = add i8 %.pre44, 13
  %.not.i.i.i.i26 = icmp eq ptr %.pre45, null
  br i1 %.not.i.i.i.i26, label %.sink.split.sink.split, label %_ZNK17QArrayDataPointerIcE11needsDetachEv.exit.i.i.i27

_ZNK17QArrayDataPointerIcE11needsDetachEv.exit.i.i.i27: ; preds = %_ZN10QByteArrayixEx.exit25.thread, %_ZN10QByteArrayixEx.exit25
  %25 = phi i8 [ %22, %_ZN10QByteArrayixEx.exit25.thread ], [ %24, %_ZN10QByteArrayixEx.exit25 ]
  %26 = phi ptr [ %13, %_ZN10QByteArrayixEx.exit25.thread ], [ %.pre42, %_ZN10QByteArrayixEx.exit25 ]
  %27 = phi ptr [ %19, %_ZN10QByteArrayixEx.exit25.thread ], [ %.pre45, %_ZN10QByteArrayixEx.exit25 ]
  %28 = load atomic i32, ptr %27 monotonic, align 4
  %29 = icmp sgt i32 %28, 1
  br i1 %29, label %.sink.split.sink.split, label %.sink.split

30:                                               ; preds = %_ZN10QByteArrayixEx.exit
  %31 = add i8 %16, -78
  %or.cond5 = icmp ult i8 %31, 13
  br i1 %or.cond5, label %32, label %46

32:                                               ; preds = %30
  %33 = load ptr, ptr %1, align 8
  %.not.i.i.i.i30 = icmp eq ptr %33, null
  br i1 %.not.i.i.i.i30, label %_ZN10QByteArrayixEx.exit33, label %_ZNK17QArrayDataPointerIcE11needsDetachEv.exit.i.i.i31

_ZNK17QArrayDataPointerIcE11needsDetachEv.exit.i.i.i31: ; preds = %32
  %34 = load atomic i32, ptr %33 monotonic, align 4
  %35 = icmp sgt i32 %34, 1
  br i1 %35, label %_ZN10QByteArrayixEx.exit33, label %_ZN10QByteArrayixEx.exit33.thread

_ZN10QByteArrayixEx.exit33.thread:                ; preds = %_ZNK17QArrayDataPointerIcE11needsDetachEv.exit.i.i.i31
  %36 = add i8 %15, -13
  br label %_ZNK17QArrayDataPointerIcE11needsDetachEv.exit.i.i.i35

_ZN10QByteArrayixEx.exit33:                       ; preds = %32, %_ZNK17QArrayDataPointerIcE11needsDetachEv.exit.i.i.i31
  %37 = load i64, ptr %3, align 8
  tail call void @_ZN10QByteArray11reallocDataExN10QArrayData16AllocationOptionE(ptr noundef align 8 dereferenceable_or_null(24) %1, i64 noundef %37, i32 noundef 1)
  %.pre = load ptr, ptr %6, align 8
  %.phi.trans.insert = getelementptr i8, ptr %.pre, i64 %9
  %.pre39 = load i8, ptr %.phi.trans.insert, align 1
  %.pre40 = load ptr, ptr %1, align 8
  %38 = add i8 %.pre39, -13
  %.not.i.i.i.i34 = icmp eq ptr %.pre40, null
  br i1 %.not.i.i.i.i34, label %.sink.split.sink.split, label %_ZNK17QArrayDataPointerIcE11needsDetachEv.exit.i.i.i35

_ZNK17QArrayDataPointerIcE11needsDetachEv.exit.i.i.i35: ; preds = %_ZN10QByteArrayixEx.exit33.thread, %_ZN10QByteArrayixEx.exit33
  %39 = phi i8 [ %36, %_ZN10QByteArrayixEx.exit33.thread ], [ %38, %_ZN10QByteArrayixEx.exit33 ]
  %40 = phi ptr [ %13, %_ZN10QByteArrayixEx.exit33.thread ], [ %.pre, %_ZN10QByteArrayixEx.exit33 ]
  %41 = phi ptr [ %33, %_ZN10QByteArrayixEx.exit33.thread ], [ %.pre40, %_ZN10QByteArrayixEx.exit33 ]
  %42 = load atomic i32, ptr %41 monotonic, align 4
  %43 = icmp sgt i32 %42, 1
  br i1 %43, label %.sink.split.sink.split, label %.sink.split

.sink.split.sink.split:                           ; preds = %_ZN10QByteArrayixEx.exit33, %_ZNK17QArrayDataPointerIcE11needsDetachEv.exit.i.i.i35, %_ZN10QByteArrayixEx.exit25, %_ZNK17QArrayDataPointerIcE11needsDetachEv.exit.i.i.i27
  %.sink.ph = phi i8 [ %25, %_ZNK17QArrayDataPointerIcE11needsDetachEv.exit.i.i.i27 ], [ %24, %_ZN10QByteArrayixEx.exit25 ], [ %39, %_ZNK17QArrayDataPointerIcE11needsDetachEv.exit.i.i.i35 ], [ %38, %_ZN10QByteArrayixEx.exit33 ]
  %44 = load i64, ptr %3, align 8
  tail call void @_ZN10QByteArray11reallocDataExN10QArrayData16AllocationOptionE(ptr noundef align 8 dereferenceable_or_null(24) %1, i64 noundef %44, i32 noundef 1)
  %.pre41 = load ptr, ptr %6, align 8
  br label %.sink.split

.sink.split:                                      ; preds = %.sink.split.sink.split, %_ZNK17QArrayDataPointerIcE11needsDetachEv.exit.i.i.i35, %_ZNK17QArrayDataPointerIcE11needsDetachEv.exit.i.i.i27
  %.sink50 = phi ptr [ %26, %_ZNK17QArrayDataPointerIcE11needsDetachEv.exit.i.i.i27 ], [ %40, %_ZNK17QArrayDataPointerIcE11needsDetachEv.exit.i.i.i35 ], [ %.pre41, %.sink.split.sink.split ]
  %.sink = phi i8 [ %25, %_ZNK17QArrayDataPointerIcE11needsDetachEv.exit.i.i.i27 ], [ %39, %_ZNK17QArrayDataPointerIcE11needsDetachEv.exit.i.i.i35 ], [ %.sink.ph, %.sink.split.sink.split ]
  %45 = getelementptr i8, ptr %.sink50, i64 %9
  store i8 %.sink, ptr %45, align 1
  br label %46

46:                                               ; preds = %.sink.split, %30
  %47 = add i32 %.038, 1
  %48 = sext i32 %47 to i64
  %49 = load i64, ptr %3, align 8
  %50 = icmp sgt i64 %49, %48
  br i1 %50, label %7, label %._crit_edge, !llvm.loop !83
}